; Function Attrs: mustprogress uwtable
define void @_ZN8proxygen23StructuredHeadersBuffer13advanceCursorEv(ptr nocapture noundef nonnull align 8 dereferenceable(32) %this) local_unnamed_addr #0 align 2 {
entry:
  %e_.i.i = getelementptr inbounds i8, ptr %this, i64 8
  %0 = load ptr, ptr %e_.i.i, align 8
  %1 = load ptr, ptr %this, align 8
  %cmp.i = icmp eq ptr %0, %1
  br i1 %cmp.i, label %if.then.i, label %_ZN5folly5RangeIPKcE7advanceEm.exit

if.then.i:                                        ; preds = %entry
  tail call void @_ZN5folly6detail16throw_exception_ISt12out_of_rangeJPKcEEEvDpT0_(ptr noundef nonnull @.str.28) #31
  unreachable

_ZN5folly5RangeIPKcE7advanceEm.exit:              ; preds = %entry
  %add.ptr.i = getelementptr inbounds i8, ptr %1, i64 1
  store ptr %add.ptr.i, ptr %this, align 8
  ret void
}